; Function Attrs: null_pointer_is_valid sspstrong uwtable
define internal noundef i32 @dissect_pfcp_enterprise_bbf_event_time_stamp(ptr noundef %0, ptr noundef readonly captures(none) %1, ptr noundef %2, ptr readnone captures(none) %3) #0 {
  %5 = alloca ptr, align 8
  call void @llvm.lifetime.start.p0(i64 8, ptr nonnull %5) #15
  %6 = load i32, ptr @hf_pfcp_bbf_event_time_stamp, align 4
  %7 = getelementptr inbounds nuw i8, ptr %1, i64 408
  %8 = load ptr, ptr %7, align 8
  %9 = call ptr @proto_tree_add_item_ret_time_string(ptr noundef %2, i32 noundef %6, ptr noundef %0, i32 noundef 0, i32 noundef 8, i32 noundef 2, ptr noundef %8, ptr noundef nonnull %5)
  %10 = call ptr @proto_tree_get_parent(ptr noundef %2)
  %11 = load ptr, ptr %5, align 8
  call void (ptr, ptr, ...) @proto_item_append_text(ptr noundef %10, ptr noundef nonnull @.str.2654, ptr noundef %11)
  call void @llvm.lifetime.end.p0(i64 8, ptr nonnull %5) #15
  ret i32 8
}